	.file	"main.c"
	.option nopic
	.attribute arch, "rv32i2p1_m2p0_zicsr2p0"
	.attribute unaligned_access, 0
	.attribute stack_align, 16
	.text
.Ltext0:
	.cfi_sections	.debug_frame
	.file 0 "/workdir/app" "mnist_original/main.c"
	.align	2
	.globl	readStimulus
	.hidden	readStimulus
	.type	readStimulus, @function
readStimulus:
.LFB9:
	.file 1 "mnist_original/main.c"
	.loc 1 13 1
	.cfi_startproc
.LVL0:
	.loc 1 14 5
	.loc 1 13 1 is_stmt 0
	mv	a3,a0
	mv	a5,a1
	.loc 1 14 5
	li	a4,1
	li	a2,24
	li	a1,24
.LVL1:
	li	a0,576
.LVL2:
	tail	envRead
.LVL3:
	.cfi_endproc
.LFE9:
	.size	readStimulus, .-readStimulus
	.align	2
	.globl	processInput
	.hidden	processInput
	.type	processInput, @function
processInput:
.LFB10:
	.loc 1 24 1 is_stmt 1
	.cfi_startproc
.LVL4:
	.loc 1 25 5
	.loc 1 26 5
	.loc 1 28 5
	.loc 1 24 1 is_stmt 0
	addi	sp,sp,-16
	.cfi_def_cfa_offset 16
	sw	s0,8(sp)
	.cfi_offset 8, -8
	mv	s0,a2
	sw	s1,4(sp)
	.loc 1 28 5
	mv	a2,a3
.LVL5:
	.cfi_offset 9, -12
	.loc 1 24 1
	mv	s1,a1
	.loc 1 28 5
	mv	a1,s0
.LVL6:
	.loc 1 24 1
	sw	ra,12(sp)
	.cfi_offset 1, -4
	.loc 1 28 5
	call	propagate
.LVL7:
	.loc 1 31 5 is_stmt 1
.LBB8:
	.loc 1 31 9
	.loc 1 31 25 discriminator 1
	.loc 1 32 9
	.loc 1 32 33 is_stmt 0
	lw	a5,0(s1)
	li	a0,0
	.loc 1 32 12
	blt	a5,zero,.L3
	.loc 1 33 13 is_stmt 1
.LVL8:
	.loc 1 35 13
	.loc 1 31 45 discriminator 2
	.loc 1 31 25 discriminator 1
.LBE8:
	.loc 1 41 5
.LBB9:
	.loc 1 35 15 is_stmt 0
	lw	a0,0(s0)
	sub	a0,a0,a5
	seqz	a0,a0
.LVL9:
.L3:
.LBE9:
	.loc 1 43 1
	lw	ra,12(sp)
	.cfi_restore 1
	lw	s0,8(sp)
	.cfi_restore 8
.LVL10:
	lw	s1,4(sp)
	.cfi_restore 9
.LVL11:
	addi	sp,sp,16
	.cfi_def_cfa_offset 0
	jr	ra
	.cfi_endproc
.LFE10:
	.size	processInput, .-processInput
	.section	.rodata.str1.4,"aMS",@progbits,1
	.align	2
.LC0:
	.string	"Expected  = %d\n"
	.align	2
.LC1:
	.string	"Predicted = %d\n"
	.align	2
.LC2:
	.string	"Result : %d/1\n"
	.align	2
.LC3:
	.string	"credence: %d\n"
	.align	2
.LC4:
	.string	"env0003"
	.align	2
.LC5:
	.string	"image %s: %d instructions\n"
	.align	2
.LC6:
	.string	"image %s: %d cycles\n"
	.section	.text.startup,"ax",@progbits
	.align	2
	.globl	main
	.hidden	main
	.type	main, @function
main:
.LFB11:
	.loc 1 46 34 is_stmt 1
	.cfi_startproc
.LVL12:
	.loc 1 49 5
	.loc 1 52 5
	.loc 1 57 5
	.loc 1 46 34 is_stmt 0
	addi	sp,sp,-624
	.cfi_def_cfa_offset 624
.LVL13:
	.loc 1 58 5 is_stmt 1
	.loc 1 59 5
	.loc 1 61 5
.LBB10:
.LBB11:
	.loc 1 14 5
	addi	a5,sp,8
.LVL14:
	li	a4,1
	addi	a3,sp,16
.LVL15:
	li	a2,24
	li	a1,24
.LVL16:
	li	a0,576
.LVL17:
.LBE11:
.LBE10:
	.loc 1 46 34 is_stmt 0
	sw	ra,620(sp)
	sw	s0,616(sp)
	sw	s1,612(sp)
	sw	s2,608(sp)
	sw	s3,604(sp)
	sw	s4,600(sp)
	.cfi_offset 1, -4
	.cfi_offset 8, -8
	.cfi_offset 9, -12
	.cfi_offset 18, -16
	.cfi_offset 19, -20
	.cfi_offset 20, -24
.LBB13:
.LBB12:
	.loc 1 14 5
	call	envRead
.LVL18:
.LBE12:
.LBE13:
	.loc 1 62 5 is_stmt 1
.LBB14:
	.loc 1 62 19
	.loc 1 62 40
 #APP
# 62 "mnist_original/main.c" 1
	csrr s3, minstret
# 0 "" 2
.LVL19:
	.loc 1 62 93
 #NO_APP
.LBE14:
	.loc 1 63 5
.LBB15:
	.loc 1 63 18
	.loc 1 63 39
 #APP
# 63 "mnist_original/main.c" 1
	csrr s1, mcycle
# 0 "" 2
.LVL20:
	.loc 1 63 90
 #NO_APP
.LBE15:
	.loc 1 64 5
	.loc 1 64 25 is_stmt 0
	addi	a3,sp,7
	addi	a2,sp,12
.LVL21:
	addi	a1,sp,8
.LVL22:
	addi	a0,sp,16
	call	processInput
.LVL23:
	mv	s0,a0
.LVL24:
	.loc 1 68 5 is_stmt 1
.LBB16:
	.loc 1 68 19
	.loc 1 68 40
 #APP
# 68 "mnist_original/main.c" 1
	csrr s4, minstret
# 0 "" 2
.LVL25:
	.loc 1 68 93
 #NO_APP
.LBE16:
	.loc 1 69 5
.LBB17:
	.loc 1 69 18
	.loc 1 69 39
 #APP
# 69 "mnist_original/main.c" 1
	csrr s2, mcycle
# 0 "" 2
.LVL26:
	.loc 1 69 90
 #NO_APP
.LBE17:
	.loc 1 71 5
	lw	a1,8(sp)
	lla	a0,.LC0
	call	printf
.LVL27:
	.loc 1 72 5
	lw	a1,12(sp)
	lla	a0,.LC1
	call	printf
.LVL28:
	.loc 1 73 5
	mv	a1,s0
	lla	a0,.LC2
	call	printf
.LVL29:
	.loc 1 74 5
	lbu	a1,7(sp)
	lla	a0,.LC3
	call	printf
.LVL30:
	.loc 1 75 5
	sub	a2,s4,s3
.LVL31:
	lla	a1,.LC4
	lla	a0,.LC5
	call	printf
.LVL32:
	.loc 1 76 5
	sub	a2,s2,s1
.LVL33:
	lla	a1,.LC4
	lla	a0,.LC6
	call	printf
.LVL34:
	.loc 1 87 1 is_stmt 0
	lw	ra,620(sp)
	.cfi_restore 1
	lw	s0,616(sp)
	.cfi_restore 8
.LVL35:
	lw	s1,612(sp)
	.cfi_restore 9
.LVL36:
	lw	s2,608(sp)
	.cfi_restore 18
.LVL37:
	lw	s3,604(sp)
	.cfi_restore 19
.LVL38:
	lw	s4,600(sp)
	.cfi_restore 20
.LVL39:
	li	a0,0
	addi	sp,sp,624
	.cfi_def_cfa_offset 0
.LVL40:
	jr	ra
	.cfi_endproc
.LFE11:
	.size	main, .-main
	.text
.Letext0:
	.file 2 "/util/gcc-toolchain-builder/riscv_toolchain/lib/gcc/riscv-none-elf/13.1.0/include/stddef.h"
	.file 3 "/util/gcc-toolchain-builder/riscv_toolchain/riscv-none-elf/include/machine/_default_types.h"
	.file 4 "/util/gcc-toolchain-builder/riscv_toolchain/riscv-none-elf/include/sys/_stdint.h"
	.file 5 "mnist_original/typedefs.h"
	.file 6 "mnist_original/env.h"
	.file 7 "mnist_original/Network.h"
	.file 8 "mnist_original/cpp_utils.h"
	.file 9 "/util/gcc-toolchain-builder/riscv_toolchain/riscv-none-elf/include/stdio.h"