	.file	"syscalls.c"
	.option nopic
	.attribute arch, "rv32i2p1_m2p0_zicsr2p0"
	.attribute unaligned_access, 0
	.attribute stack_align, 16
	.text
.Ltext0:
	.cfi_sections	.debug_frame
	.file 0 "/workdir/app" "../bsp/hal/syscalls.c"
	.align	2
	.globl	__syscall_error
	.hidden	__syscall_error
	.type	__syscall_error, @function
__syscall_error:
.LFB0:
	.file 1 "../bsp/hal/syscalls.c"
	.loc 1 90 1
	.cfi_startproc
.LVL0:
	.loc 1 91 3
	.loc 1 91 11 is_stmt 0
	neg	a0,a0
.LVL1:
	.loc 1 91 9
	sw	a0,errno,a5
	.loc 1 92 3 is_stmt 1
	.loc 1 93 1 is_stmt 0
	li	a0,-1
.LVL2:
	ret
	.cfi_endproc
.LFE0:
	.size	__syscall_error, .-__syscall_error
	.section	.rodata.str1.4,"aMS",@progbits,1
	.align	2
.LC0:
	.string	"Unimplemented system call called!\n"
	.text
	.align	2
	.globl	unimplemented_syscall
	.hidden	unimplemented_syscall
	.type	unimplemented_syscall, @function
unimplemented_syscall:
.LFB1:
	.loc 1 96 1 is_stmt 1
	.cfi_startproc
	.loc 1 97 3
.LVL3:
	.loc 1 98 3
	.loc 1 98 10
	.loc 1 97 15 is_stmt 0
	lla	a4,.LC0
	.loc 1 98 10
	li	a5,85
	.loc 1 99 33
	li	a3,268435456
.LVL4:
.L4:
	.loc 1 99 5 is_stmt 1
	.loc 1 99 38 is_stmt 0
	addi	a4,a4,1
.LVL5:
	.loc 1 99 33
	sw	a5,0(a3)
	.loc 1 98 10 is_stmt 1
	lbu	a5,0(a4)
	bne	a5,zero,.L4
	.loc 1 100 1 is_stmt 0
	ret
	.cfi_endproc
.LFE1:
	.size	unimplemented_syscall, .-unimplemented_syscall
	.align	2
	.globl	nanosleep
	.hidden	nanosleep
	.type	nanosleep, @function
nanosleep:
.LFB2:
	.loc 1 103 1 is_stmt 1
	.cfi_startproc
.LVL6:
	.loc 1 104 3
	.loc 1 104 9 is_stmt 0
	li	a5,88
	sw	a5,errno,a4
	.loc 1 105 3 is_stmt 1
	.loc 1 106 1 is_stmt 0
	li	a0,-1
.LVL7:
	ret
	.cfi_endproc
.LFE2:
	.size	nanosleep, .-nanosleep
	.align	2
	.globl	_access
	.hidden	_access
	.type	_access, @function
_access:
.LFB3:
	.loc 1 109 1 is_stmt 1
	.cfi_startproc
.LVL8:
	.loc 1 110 3
	.loc 1 110 9 is_stmt 0
	li	a5,88
	sw	a5,errno,a4
	.loc 1 111 3 is_stmt 1
	.loc 1 112 1 is_stmt 0
	li	a0,-1
.LVL9:
	ret
	.cfi_endproc
.LFE3:
	.size	_access, .-_access
	.align	2
	.globl	_chdir
	.hidden	_chdir
	.type	_chdir, @function
_chdir:
.LFB4:
	.loc 1 115 1 is_stmt 1
	.cfi_startproc
.LVL10:
	.loc 1 116 3
	.loc 1 116 9 is_stmt 0
	li	a5,88
	sw	a5,errno,a4
	.loc 1 117 3 is_stmt 1
	.loc 1 118 1 is_stmt 0
	li	a0,-1
.LVL11:
	ret
	.cfi_endproc
.LFE4:
	.size	_chdir, .-_chdir
	.align	2
	.globl	_chmod
	.hidden	_chmod
	.type	_chmod, @function
_chmod:
.LFB5:
	.loc 1 121 1 is_stmt 1
	.cfi_startproc
.LVL12:
	.loc 1 122 3
	.loc 1 122 9 is_stmt 0
	li	a5,88
	sw	a5,errno,a4
	.loc 1 123 3 is_stmt 1
	.loc 1 124 1 is_stmt 0
	li	a0,-1
.LVL13:
	ret
	.cfi_endproc
.LFE5:
	.size	_chmod, .-_chmod
	.align	2
	.globl	_chown
	.hidden	_chown
	.type	_chown, @function
_chown:
.LFB6:
	.loc 1 127 1 is_stmt 1
	.cfi_startproc
.LVL14:
	.loc 1 128 3
	.loc 1 128 9 is_stmt 0
	li	a5,88
	sw	a5,errno,a4
	.loc 1 129 3 is_stmt 1
	.loc 1 130 1 is_stmt 0
	li	a0,-1
.LVL15:
	ret
	.cfi_endproc
.LFE6:
	.size	_chown, .-_chown
	.align	2
	.globl	_close
	.hidden	_close
	.type	_close, @function
_close:
.LFB7:
	.loc 1 133 1 is_stmt 1
	.cfi_startproc
.LVL16:
	.loc 1 134 3
	.loc 1 135 1 is_stmt 0
	li	a0,-1
.LVL17:
	ret
	.cfi_endproc
.LFE7:
	.size	_close, .-_close
	.align	2
	.globl	_execve
	.hidden	_execve
	.type	_execve, @function
_execve:
.LFB8:
	.loc 1 138 1 is_stmt 1
	.cfi_startproc
.LVL18:
	.loc 1 139 3
	.loc 1 139 9 is_stmt 0
	li	a5,12
	sw	a5,errno,a4
	.loc 1 140 3 is_stmt 1
	.loc 1 141 1 is_stmt 0
	li	a0,-1
.LVL19:
	ret
	.cfi_endproc
.LFE8:
	.size	_execve, .-_execve
	.align	2
	.globl	_exit
	.hidden	_exit
	.type	_exit, @function
_exit:
.LFB9:
	.loc 1 144 1 is_stmt 1
	.cfi_startproc
.LVL20:
	.loc 1 145 3
	.loc 1 145 31 is_stmt 0
	li	a5,-2147221504
	sw	a0,0(a5)
	.loc 1 146 3 is_stmt 1
 #APP
# 146 "../bsp/hal/syscalls.c" 1
	wfi
# 0 "" 2
 #NO_APP
.L14:
	.loc 1 148 3
	.loc 1 148 14
	.loc 1 148 9
	.loc 1 148 3
	.loc 1 148 14
	.loc 1 148 9
	j	.L14
	.cfi_endproc
.LFE9:
	.size	_exit, .-_exit
	.align	2
	.globl	_faccessat
	.hidden	_faccessat
	.type	_faccessat, @function
_faccessat:
.LFB10:
	.loc 1 152 1
	.cfi_startproc
.LVL21:
	.loc 1 153 3
	.loc 1 153 9 is_stmt 0
	li	a5,88
	sw	a5,errno,a4
	.loc 1 154 3 is_stmt 1
	.loc 1 155 1 is_stmt 0
	li	a0,-1
.LVL22:
	ret
	.cfi_endproc
.LFE10:
	.size	_faccessat, .-_faccessat
	.align	2
	.globl	_fork
	.hidden	_fork
	.type	_fork, @function
_fork:
.LFB11:
	.loc 1 158 1 is_stmt 1
	.cfi_startproc
	.loc 1 159 3
	.loc 1 159 9 is_stmt 0
	li	a5,11
	sw	a5,errno,a4
	.loc 1 160 3 is_stmt 1
	.loc 1 161 1 is_stmt 0
	li	a0,-1
	ret
	.cfi_endproc
.LFE11:
	.size	_fork, .-_fork
	.align	2
	.globl	_fstat
	.hidden	_fstat
	.type	_fstat, @function
_fstat:
.LFB12:
	.loc 1 164 1 is_stmt 1
	.cfi_startproc
.LVL23:
	.loc 1 165 3
	.loc 1 165 15 is_stmt 0
	li	a5,8192
	sw	a5,4(a1)
	.loc 1 166 3 is_stmt 1
	.loc 1 169 1 is_stmt 0
	li	a0,0
.LVL24:
	ret
	.cfi_endproc
.LFE12:
	.size	_fstat, .-_fstat
	.align	2
	.globl	_fstatat
	.hidden	_fstatat
	.type	_fstatat, @function
_fstatat:
.LFB13:
	.loc 1 172 1 is_stmt 1
	.cfi_startproc
.LVL25:
	.loc 1 173 3
	.loc 1 173 9 is_stmt 0
	li	a5,88
	sw	a5,errno,a4
	.loc 1 174 3 is_stmt 1
	.loc 1 175 1 is_stmt 0
	li	a0,-1
.LVL26:
	ret
	.cfi_endproc
.LFE13:
	.size	_fstatat, .-_fstatat
	.align	2
	.globl	_ftime
	.hidden	_ftime
	.type	_ftime, @function
_ftime:
.LFB41:
	.cfi_startproc
	.loc 1 177 5 is_stmt 1
	li	a5,88
	sw	a5,errno,a4
	li	a0,-1
	ret
	.cfi_endproc
.LFE41:
	.size	_ftime, .-_ftime
	.align	2
	.globl	_getcwd
	.hidden	_getcwd
	.type	_getcwd, @function
_getcwd:
.LFB15:
	.loc 1 184 1
	.cfi_startproc
.LVL27:
	.loc 1 185 3
	.loc 1 185 9 is_stmt 0
	li	a5,-88
	sw	a5,errno,a4
	.loc 1 186 3 is_stmt 1
	.loc 1 187 1 is_stmt 0
	li	a0,0
.LVL28:
	ret
	.cfi_endproc
.LFE15:
	.size	_getcwd, .-_getcwd
	.align	2
	.globl	_getpid
	.hidden	_getpid
	.type	_getpid, @function
_getpid:
.LFB16:
	.loc 1 190 1 is_stmt 1
	.cfi_startproc
	.loc 1 191 3
	.loc 1 192 1 is_stmt 0
	li	a0,1
	ret
	.cfi_endproc
.LFE16:
	.size	_getpid, .-_getpid
	.align	2
	.globl	_gettimeofday
	.hidden	_gettimeofday
	.type	_gettimeofday, @function
_gettimeofday:
.LFB17:
	.loc 1 195 1 is_stmt 1
	.cfi_startproc
.LVL29:
	.loc 1 196 3
	.loc 1 196 9 is_stmt 0
	li	a5,-88
	sw	a5,errno,a4
	.loc 1 197 3 is_stmt 1
	.loc 1 198 1 is_stmt 0
	li	a0,-1
.LVL30:
	ret
	.cfi_endproc
.LFE17:
	.size	_gettimeofday, .-_gettimeofday
	.align	2
	.globl	_isatty
	.hidden	_isatty
	.type	_isatty, @function
_isatty:
.LFB18:
	.loc 1 201 1 is_stmt 1
	.cfi_startproc
.LVL31:
	.loc 1 202 3
	.loc 1 202 16 is_stmt 0
	addi	a0,a0,-1
.LVL32:
	.loc 1 203 1
	seqz	a0,a0
.LVL33:
	ret
	.cfi_endproc
.LFE18:
	.size	_isatty, .-_isatty
	.align	2
	.globl	_kill
	.hidden	_kill
	.type	_kill, @function
_kill:
.LFB19:
	.loc 1 206 1 is_stmt 1
	.cfi_startproc
.LVL34:
	.loc 1 207 3
	.loc 1 207 9 is_stmt 0
	li	a5,22
	sw	a5,errno,a4
	.loc 1 208 3 is_stmt 1
	.loc 1 209 1 is_stmt 0
	li	a0,-1
.LVL35:
	ret
	.cfi_endproc
.LFE19:
	.size	_kill, .-_kill
	.align	2
	.globl	_link
	.hidden	_link
	.type	_link, @function
_link:
.LFB20:
	.loc 1 212 1 is_stmt 1
	.cfi_startproc
.LVL36:
	.loc 1 213 3
	.loc 1 213 9 is_stmt 0
	li	a5,31
	sw	a5,errno,a4
	.loc 1 214 3 is_stmt 1
	.loc 1 215 1 is_stmt 0
	li	a0,-1
.LVL37:
	ret
	.cfi_endproc
.LFE20:
	.size	_link, .-_link
	.align	2
	.globl	_lseek
	.hidden	_lseek
	.type	_lseek, @function
_lseek:
.LFB21:
	.loc 1 218 1 is_stmt 1
	.cfi_startproc
.LVL38:
	.loc 1 219 3
	.loc 1 220 1 is_stmt 0
	li	a0,0
.LVL39:
	ret
	.cfi_endproc
.LFE21:
	.size	_lseek, .-_lseek
	.align	2
	.globl	_lstat
	.hidden	_lstat
	.type	_lstat, @function
_lstat:
.LFB37:
	.cfi_startproc
	.loc 1 222 5 is_stmt 1
	li	a5,88
	sw	a5,errno,a4
	li	a0,-1
	ret
	.cfi_endproc
.LFE37:
	.size	_lstat, .-_lstat
	.align	2
	.globl	_open
	.hidden	_open
	.type	_open, @function
_open:
.LFB23:
	.loc 1 229 1
	.cfi_startproc
.LVL40:
	.loc 1 230 3
	.loc 1 231 1 is_stmt 0
	li	a0,-1
.LVL41:
	ret
	.cfi_endproc
.LFE23:
	.size	_open, .-_open
	.align	2
	.globl	_openat
	.hidden	_openat
	.type	_openat, @function
_openat:
.LFB45:
	.cfi_startproc
	.loc 1 233 5 is_stmt 1
	li	a5,88
	sw	a5,errno,a4
	li	a0,-1
	ret
	.cfi_endproc
.LFE45:
	.size	_openat, .-_openat
	.align	2
	.globl	_read
	.hidden	_read
	.type	_read, @function
_read:
.LFB25:
	.loc 1 240 1
	.cfi_startproc
.LVL42:
	.loc 1 241 3
	.loc 1 242 1 is_stmt 0
	li	a0,0
.LVL43:
	ret
	.cfi_endproc
.LFE25:
	.size	_read, .-_read
	.align	2
	.globl	_stat
	.hidden	_stat
	.type	_stat, @function
_stat:
.LFB26:
	.loc 1 245 1 is_stmt 1
	.cfi_startproc
.LVL44:
	.loc 1 246 3
	.loc 1 246 15 is_stmt 0
	li	a5,8192
	sw	a5,4(a1)
	.loc 1 247 3 is_stmt 1
	.loc 1 250 1 is_stmt 0
	li	a0,0
.LVL45:
	ret
	.cfi_endproc
.LFE26:
	.size	_stat, .-_stat
	.align	2
	.globl	_sysconf
	.hidden	_sysconf
	.type	_sysconf, @function
_sysconf:
.LFB43:
	.cfi_startproc
	.loc 1 252 6 is_stmt 1
	li	a0,-1
	ret
	.cfi_endproc
.LFE43:
	.size	_sysconf, .-_sysconf
	.align	2
	.globl	_times
	.hidden	_times
	.type	_times, @function
_times:
.LFB28:
	.loc 1 259 1
	.cfi_startproc
.LVL46:
	.loc 1 260 3
	.loc 1 261 1 is_stmt 0
	li	a0,-1
.LVL47:
	ret
	.cfi_endproc
.LFE28:
	.size	_times, .-_times
	.align	2
	.globl	_unlink
	.hidden	_unlink
	.type	_unlink, @function
_unlink:
.LFB29:
	.loc 1 264 1 is_stmt 1
	.cfi_startproc
.LVL48:
	.loc 1 265 3
	.loc 1 265 9 is_stmt 0
	li	a5,2
	sw	a5,errno,a4
	.loc 1 266 3 is_stmt 1
	.loc 1 267 1 is_stmt 0
	li	a0,-1
.LVL49:
	ret
	.cfi_endproc
.LFE29:
	.size	_unlink, .-_unlink
	.align	2
	.globl	_utime
	.hidden	_utime
	.type	_utime, @function
_utime:
.LFB39:
	.cfi_startproc
	.loc 1 269 5 is_stmt 1
	li	a5,88
	sw	a5,errno,a4
	li	a0,-1
	ret
	.cfi_endproc
.LFE39:
	.size	_utime, .-_utime
	.align	2
	.globl	_wait
	.hidden	_wait
	.type	_wait, @function
_wait:
.LFB31:
	.loc 1 276 1
	.cfi_startproc
.LVL50:
	.loc 1 277 3
	.loc 1 277 9 is_stmt 0
	li	a5,10
	sw	a5,errno,a4
	.loc 1 278 3 is_stmt 1
	.loc 1 279 1 is_stmt 0
	li	a0,-1
.LVL51:
	ret
	.cfi_endproc
.LFE31:
	.size	_wait, .-_wait
	.align	2
	.globl	_write
	.hidden	_write
	.type	_write, @function
_write:
.LFB32:
	.loc 1 282 1 is_stmt 1
	.cfi_startproc
.LVL52:
	.loc 1 290 5
	.loc 1 282 1 is_stmt 0
	addi	sp,sp,-16
	.cfi_def_cfa_offset 16
	sw	s2,0(sp)
	.cfi_offset 18, -16
	.loc 1 290 8
	lla	s2,g_stdio_uart_init_done
	.loc 1 290 7
	lw	a5,0(s2)
	.loc 1 282 1
	sw	s0,8(sp)
	sw	s1,4(sp)
	sw	ra,12(sp)
	.cfi_offset 8, -8
	.cfi_offset 9, -12
	.cfi_offset 1, -4
	.loc 1 282 1
	mv	s1,a1
	mv	s0,a2
	.loc 1 290 7
	beq	a5,zero,.L40
.LVL53:
.L38:
	.loc 1 302 5 is_stmt 1
	mv	a2,s0
	mv	a1,s1
	lla	a0,g_uart_0
	call	UART_polled_tx
.LVL54:
	.loc 1 304 5
	.loc 1 322 1 is_stmt 0
	lw	ra,12(sp)
	.cfi_remember_state
	.cfi_restore 1
	mv	a0,s0
	lw	s0,8(sp)
	.cfi_restore 8
.LVL55:
	lw	s1,4(sp)
	.cfi_restore 9
.LVL56:
	lw	s2,0(sp)
	.cfi_restore 18
	addi	sp,sp,16
	.cfi_def_cfa_offset 0
	jr	ra
.LVL57:
.L40:
	.cfi_restore_state
	.loc 1 292 9 is_stmt 1
	li	a1,114688
	li	a2,3
	addi	a1,a1,512
	lla	a0,g_uart_0
.LVL58:
	call	UART_init
.LVL59:
	.loc 1 296 9
	.loc 1 296 32 is_stmt 0
	li	a5,1
	sw	a5,0(s2)
	j	.L38
	.cfi_endproc
.LFE32:
	.size	_write, .-_write
	.align	2
	.globl	_brk
	.hidden	_brk
	.type	_brk, @function
_brk:
.LFB33:
	.loc 1 329 1 is_stmt 1
	.cfi_startproc
.LVL60:
	.loc 1 330 3
	.loc 1 330 7 is_stmt 0
	sw	a0,brk,a5
	.loc 1 331 3 is_stmt 1
	.loc 1 332 1 is_stmt 0
	li	a0,0
.LVL61:
	ret
	.cfi_endproc
.LFE33:
	.size	_brk, .-_brk
	.align	2
	.globl	_sbrk
	.hidden	_sbrk
	.type	_sbrk, @function
_sbrk:
.LFB34:
	.loc 1 335 1 is_stmt 1
	.cfi_startproc
.LVL62:
	.loc 1 336 3
	.loc 1 336 9 is_stmt 0
	lla	a4,brk
	lw	a5,0(a4)
.LVL63:
	.loc 1 337 3 is_stmt 1
	.loc 1 339 3
	.loc 1 339 23 is_stmt 0
	add	a0,a5,a0
.LVL64:
	sw	a0,0(a4)
.LVL65:
	.loc 1 340 3 is_stmt 1
	.loc 1 340 6 is_stmt 0
	bgeu	a0,sp,.L43
	.loc 1 340 29 discriminator 1
	lla	a4,__heap_end
	bgeu	a0,a4,.L43
	.loc 1 351 1
	mv	a0,a5
.LVL66:
	ret
.LVL67:
.L43:
	.loc 1 348 7 is_stmt 1
	.loc 1 348 13 is_stmt 0
	li	a5,12
.LVL68:
	sw	a5,errno,a4
	.loc 1 349 7 is_stmt 1
	.loc 1 349 14 is_stmt 0
	li	a5,-1
	.loc 1 351 1
	mv	a0,a5
.LVL69:
	ret
	.cfi_endproc
.LFE34:
	.size	_sbrk, .-_sbrk
	.align	2
	.globl	handle_syscall
	.hidden	handle_syscall
	.type	handle_syscall, @function
handle_syscall:
.LFB35:
	.loc 1 360 17 is_stmt 1
	.cfi_startproc
.LVL70:
	addi	sp,sp,-16
	.cfi_def_cfa_offset 16
	sw	s1,4(sp)
	sw	ra,12(sp)
	.loc 1 367 3 is_stmt 0
	li	a5,129
.LVL71:
	.cfi_offset 9, -12
	.cfi_offset 1, -4
	.loc 1 360 17
	mv	s1,a1
	.loc 1 364 5 is_stmt 1
.LVL72:
	.loc 1 367 3
	bgt	a7,a5,.L46
	li	a5,47
	ble	a7,a5,.L72
	addi	a7,a7,-48
.LVL73:
	li	a5,81
	bgtu	a7,a5,.L69
	lla	a4,.L57
.LVL74:
	slli	a7,a7,2
.LVL75:
	add	a7,a7,a4
	lw	a5,0(a7)
	add	a5,a5,a4
	jr	a5
	.section	.rodata
	.align	2
	.align	2
.L57:
	.word	.L50-.L57
	.word	.L50-.L57
	.word	.L69-.L57
	.word	.L69-.L57
	.word	.L69-.L57
	.word	.L69-.L57
	.word	.L69-.L57
	.word	.L69-.L57
	.word	.L50-.L57
	.word	.L45-.L57
	.word	.L69-.L57
	.word	.L69-.L57
	.word	.L69-.L57
	.word	.L69-.L57
	.word	.L45-.L57
	.word	.L45-.L57
	.word	.L60-.L57
	.word	.L69-.L57
	.word	.L69-.L57
	.word	.L69-.L57
	.word	.L69-.L57
	.word	.L69-.L57
	.word	.L69-.L57
	.word	.L69-.L57
	.word	.L69-.L57
	.word	.L69-.L57
	.word	.L69-.L57
	.word	.L69-.L57
	.word	.L69-.L57
	.word	.L69-.L57
	.word	.L69-.L57
	.word	.L50-.L57
	.word	.L59-.L57
	.word	.L69-.L57
	.word	.L69-.L57
	.word	.L69-.L57
	.word	.L69-.L57
	.word	.L69-.L57
	.word	.L69-.L57
	.word	.L69-.L57
	.word	.L69-.L57
	.word	.L69-.L57
	.word	.L69-.L57
	.word	.L69-.L57
	.word	.L69-.L57
	.word	.L58-.L57
	.word	.L69-.L57
	.word	.L69-.L57
	.word	.L69-.L57
	.word	.L69-.L57
	.word	.L69-.L57
	.word	.L69-.L57
	.word	.L69-.L57
	.word	.L69-.L57
	.word	.L69-.L57
	.word	.L69-.L57
	.word	.L69-.L57
	.word	.L69-.L57
	.word	.L69-.L57
	.word	.L69-.L57
	.word	.L69-.L57
	.word	.L69-.L57
	.word	.L69-.L57
	.word	.L69-.L57
	.word	.L69-.L57
	.word	.L69-.L57
	.word	.L69-.L57
	.word	.L69-.L57
	.word	.L69-.L57
	.word	.L69-.L57
	.word	.L69-.L57
	.word	.L69-.L57
	.word	.L69-.L57
	.word	.L69-.L57
	.word	.L69-.L57
	.word	.L69-.L57
	.word	.L69-.L57
	.word	.L69-.L57
	.word	.L69-.L57
	.word	.L69-.L57
	.word	.L69-.L57
	.word	.L56-.L57
	.text
.LVL76:
.L72:
	li	a5,17
	beq	a7,a5,.L48
.LVL77:
.L69:
	li	a4,85
	lla	a5,.LC0
.LBB86:
.LBB87:
	.loc 1 99 33 is_stmt 0
	li	a3,268435456
.LVL78:
.L66:
	.loc 1 99 5 is_stmt 1
	.loc 1 99 38 is_stmt 0
	addi	a5,a5,1
.LVL79:
	.loc 1 99 33
	sw	a4,0(a3)
	.loc 1 98 10 is_stmt 1
	lbu	a4,0(a5)
	bne	a4,zero,.L66
.LVL80:
.L45:
.LBE87:
.LBE86:
	.loc 1 438 1 is_stmt 0
	lw	ra,12(sp)
	.cfi_remember_state
	.cfi_restore 1
	lw	s1,4(sp)
	.cfi_restore 9
	addi	sp,sp,16
	.cfi_def_cfa_offset 0
	jr	ra
.LVL81:
.L50:
	.cfi_restore_state
	.loc 1 387 7 is_stmt 1
.LBB88:
.LBB89:
	.loc 1 235 3
.LBE89:
.LBE88:
	.loc 1 438 1 is_stmt 0
	lw	ra,12(sp)
	.cfi_remember_state
	.cfi_restore 1
.LBB91:
.LBB90:
	.loc 1 235 9
	li	a5,88
	sw	a5,errno,a4
	.loc 1 236 3 is_stmt 1
.LVL82:
.LBE90:
.LBE91:
	.loc 1 388 7
	.loc 1 438 1 is_stmt 0
	lw	s1,4(sp)
	.cfi_restore 9
.LVL83:
	addi	sp,sp,16
	.cfi_def_cfa_offset 0
	jr	ra
.LVL84:
.L46:
	.cfi_restore_state
	.loc 1 367 3
	li	a5,1039
	bgt	a7,a5,.L69
	li	a5,1023
	ble	a7,a5,.L73
	addi	a7,a7,-1024
.LVL85:
	li	a5,15
	bgtu	a7,a5,.L69
	lla	a4,.L51
.LVL86:
	slli	a7,a7,2
.LVL87:
	add	a7,a7,a4
	lw	a5,0(a7)
	add	a5,a5,a4
	jr	a5
	.section	.rodata
	.align	2
	.align	2
.L51:
	.word	.L45-.L51
	.word	.L54-.L51
	.word	.L53-.L51
	.word	.L69-.L51
	.word	.L69-.L51
	.word	.L69-.L51
	.word	.L69-.L51
	.word	.L69-.L51
	.word	.L69-.L51
	.word	.L50-.L51
	.word	.L69-.L51
	.word	.L69-.L51
	.word	.L69-.L51
	.word	.L69-.L51
	.word	.L59-.L51
	.word	.L50-.L51
	.text
.LVL88:
.L73:
	li	a5,172
	beq	a7,a5,.L45
	bgt	a7,a5,.L62
	li	a5,153
	beq	a7,a5,.L45
	li	a5,169
	bne	a7,a5,.L69
.L48:
	.loc 1 408 7 is_stmt 1
.LVL89:
.LBB92:
.LBB93:
	.loc 1 185 3
	.loc 1 185 9 is_stmt 0
	li	a5,-88
	sw	a5,errno,a4
.LVL90:
	.loc 1 186 3 is_stmt 1
.LBE93:
.LBE92:
	.loc 1 409 7
.LBB95:
.LBB94:
	.loc 1 186 9 is_stmt 0
	j	.L45
.LVL91:
.L59:
.LBE94:
.LBE95:
	.loc 1 414 7 is_stmt 1
.LBB96:
.LBB97:
	.loc 1 165 3
	.loc 1 165 15 is_stmt 0
	li	a5,8192
	sw	a5,4(s1)
	.loc 1 166 3 is_stmt 1
.LVL92:
.LBE97:
.LBE96:
	.loc 1 415 7
.LBB99:
.LBB98:
	.loc 1 166 10 is_stmt 0
	j	.L45
.LVL93:
.L62:
.LBE98:
.LBE99:
	.loc 1 367 3
	li	a5,214
	bne	a7,a5,.L69
	.loc 1 396 7 is_stmt 1
.LVL94:
.LBB100:
.LBB101:
	.loc 1 330 3
	.loc 1 330 7 is_stmt 0
	sw	a0,brk,a5
	.loc 1 331 3 is_stmt 1
.LVL95:
.LBE101:
.LBE100:
	.loc 1 397 7
.LBB103:
.LBB102:
	.loc 1 331 10 is_stmt 0
	j	.L45
.LVL96:
.L54:
.LBE102:
.LBE103:
	.loc 1 399 7 is_stmt 1
.LBB104:
.LBB105:
	.loc 1 213 3
	.loc 1 213 9 is_stmt 0
	li	a5,31
	sw	a5,errno,a4
	.loc 1 214 3 is_stmt 1
.LVL97:
.LBE105:
.LBE104:
	.loc 1 400 7
.LBB107:
.LBB106:
	.loc 1 214 10 is_stmt 0
	j	.L45
.L53:
.LBE106:
.LBE107:
	.loc 1 402 7 is_stmt 1
.LVL98:
.LBB108:
.LBB109:
	.loc 1 265 3
	.loc 1 265 9 is_stmt 0
	li	a5,2
	sw	a5,errno,a4
	.loc 1 266 3 is_stmt 1
.LVL99:
.LBE109:
.LBE108:
	.loc 1 403 7
.LBB111:
.LBB110:
	.loc 1 266 10 is_stmt 0
	j	.L45
.L58:
.LBE110:
.LBE111:
	.loc 1 369 7 is_stmt 1
.LVL100:
.LBB112:
.LBB113:
	.loc 1 145 3
	.loc 1 145 31 is_stmt 0
	li	a5,-2147221504
	sw	a0,0(a5)
	.loc 1 146 3 is_stmt 1
 #APP
# 146 "../bsp/hal/syscalls.c" 1
	wfi
# 0 "" 2
 #NO_APP
.L64:
	.loc 1 148 3
	.loc 1 148 14
	.loc 1 148 9
	.loc 1 148 3
	.loc 1 148 14
	.loc 1 148 9
	j	.L64
.LVL101:
.L56:
.LBE113:
.LBE112:
	.loc 1 381 7
.LBB114:
.LBB115:
	.loc 1 207 3
	.loc 1 207 9 is_stmt 0
	li	a5,22
	sw	a5,errno,a4
	.loc 1 208 3 is_stmt 1
.LVL102:
.LBE115:
.LBE114:
	.loc 1 382 7
.LBB117:
.LBB116:
	.loc 1 208 10 is_stmt 0
	j	.L45
.L60:
	sw	s2,0(sp)
	.cfi_offset 18, -16
.LBE116:
.LBE117:
.LBB118:
.LBB119:
	.loc 1 290 8
	lla	s2,g_stdio_uart_init_done
	.loc 1 290 7
	lw	a5,0(s2)
	sw	s0,8(sp)
	.cfi_offset 8, -8
	mv	s0,a2
.LBE119:
.LBE118:
	.loc 1 375 7 is_stmt 1
.LVL103:
.LBB124:
.LBB120:
	.loc 1 290 5
	.loc 1 290 7 is_stmt 0
	beq	a5,zero,.L74
.LVL104:
.L65:
	.loc 1 302 5 is_stmt 1
	mv	a2,s0
	lw	s0,8(sp)
	.cfi_remember_state
	.cfi_restore 8
.LVL105:
	lw	s2,0(sp)
	.cfi_restore 18
.LBE120:
.LBE124:
	.loc 1 438 1 is_stmt 0
	lw	ra,12(sp)
	.cfi_restore 1
.LBB125:
.LBB121:
	.loc 1 302 5
	mv	a1,s1
.LBE121:
.LBE125:
	.loc 1 438 1
	lw	s1,4(sp)
	.cfi_restore 9
.LVL106:
.LBB126:
.LBB122:
	.loc 1 302 5
	lla	a0,g_uart_0
.LBE122:
.LBE126:
	.loc 1 438 1
	addi	sp,sp,16
	.cfi_def_cfa_offset 0
.LBB127:
.LBB123:
	.loc 1 302 5
	tail	UART_polled_tx
.LVL107:
.L74:
	.cfi_restore_state
	.loc 1 292 9 is_stmt 1
	li	a1,114688
	li	a2,3
	addi	a1,a1,512
	lla	a0,g_uart_0
.LVL108:
	call	UART_init
.LVL109:
	.loc 1 296 9
	.loc 1 296 32 is_stmt 0
	li	a5,1
	sw	a5,0(s2)
	j	.L65
.LBE123:
.LBE127:
	.cfi_endproc
.LFE35:
	.size	handle_syscall, .-handle_syscall
	.section	.sbss,"aw",@nobits
	.align	2
	.type	g_stdio_uart_init_done, @object
	.size	g_stdio_uart_init_done, 4
g_stdio_uart_init_done:
	.zero	4
	.section	.sdata,"aw"
	.align	2
	.type	brk, @object
	.size	brk, 4
brk:
	.word	__heap_start
	.text
.Letext0:
	.file 2 "/util/gcc-toolchain-builder/riscv_toolchain/riscv-none-elf/include/machine/_default_types.h"
	.file 3 "/util/gcc-toolchain-builder/riscv_toolchain/lib/gcc/riscv-none-elf/13.1.0/include/stddef.h"
	.file 4 "/util/gcc-toolchain-builder/riscv_toolchain/riscv-none-elf/include/sys/_types.h"
	.file 5 "/util/gcc-toolchain-builder/riscv_toolchain/riscv-none-elf/include/sys/_stdint.h"
	.file 6 "/util/gcc-toolchain-builder/riscv_toolchain/riscv-none-elf/include/sys/_timeval.h"
	.file 7 "/util/gcc-toolchain-builder/riscv_toolchain/riscv-none-elf/include/sys/_timespec.h"
	.file 8 "/util/gcc-toolchain-builder/riscv_toolchain/riscv-none-elf/include/sys/types.h"
	.file 9 "/util/gcc-toolchain-builder/riscv_toolchain/riscv-none-elf/include/sys/stat.h"
	.file 10 "/util/gcc-toolchain-builder/riscv_toolchain/riscv-none-elf/include/sys/timeb.h"
	.file 11 "/util/gcc-toolchain-builder/riscv_toolchain/riscv-none-elf/include/sys/times.h"
	.file 12 "/util/gcc-toolchain-builder/riscv_toolchain/riscv-none-elf/include/sys/utime.h"
	.file 13 "/workdir/app/../bsp/drivers/uart/uart.h"
	.file 14 "/util/gcc-toolchain-builder/riscv_toolchain/riscv-none-elf/include/sys/unistd.h"